target datalayout = "e-m:e-p270:32:32-p271:32:32-p272:64:64-i64:64-i128:128-f80:128-n8:16:32:64-S128"
target triple = "x86_64-unknown-linux-gnu"

; Function Attrs: mustprogress nounwind uwtable
define internal void @_ZN6snappy12_GLOBAL__N_127ConditionalUnalignedCopy128ILb0EEEvPKcPc(ptr noundef %src, ptr noundef %dst) #0 {
entry:
  %src.addr = alloca ptr, align 8
  %dst.addr = alloca ptr, align 8
  store ptr %src, ptr %src.addr, align 8
  store ptr %dst, ptr %dst.addr, align 8
  %0 = load ptr, ptr %src.addr, align 8
  %1 = load ptr, ptr %dst.addr, align 8
  call void @_ZN6snappy12_GLOBAL__N_115UnalignedCopy64EPKvPv(ptr noundef %0, ptr noundef %1)
  %2 = load ptr, ptr %src.addr, align 8
  %add.ptr = getelementptr inbounds i8, ptr %2, i64 8
  %3 = load ptr, ptr %dst.addr, align 8
  %add.ptr1 = getelementptr inbounds i8, ptr %3, i64 8
  call void @_ZN6snappy12_GLOBAL__N_115UnalignedCopy64EPKvPv(ptr noundef %add.ptr, ptr noundef %add.ptr1)
  ret void
}

; Function Attrs: mustprogress nounwind uwtable
define internal noundef ptr @_ZN6snappy12_GLOBAL__N_119IncrementalCopySlowEPKcPcS3_(ptr noundef %src, ptr noundef %op, ptr noundef %op_limit) #0 {
entry:
  %src.addr = alloca ptr, align 8
  %op.addr = alloca ptr, align 8
  %op_limit.addr = alloca ptr, align 8
  store ptr %src, ptr %src.addr, align 8
  store ptr %op, ptr %op.addr, align 8
  store ptr %op_limit, ptr %op_limit.addr, align 8
  br label %while.cond

while.cond:                                       ; preds = %while.body, %entry
  %0 = load ptr, ptr %op.addr, align 8
  %1 = load ptr, ptr %op_limit.addr, align 8
  %cmp = icmp ult ptr %0, %1
  br i1 %cmp, label %while.body, label %while.end

while.body:                                       ; preds = %while.cond
  %2 = load ptr, ptr %src.addr, align 8
  %incdec.ptr = getelementptr inbounds i8, ptr %2, i32 1
  store ptr %incdec.ptr, ptr %src.addr, align 8
  %3 = load i8, ptr %2, align 1
  %4 = load ptr, ptr %op.addr, align 8
  %incdec.ptr1 = getelementptr inbounds i8, ptr %4, i32 1
  store ptr %incdec.ptr1, ptr %op.addr, align 8
  store i8 %3, ptr %4, align 1
  br label %while.cond, !llvm.loop !41

while.end:                                        ; preds = %while.cond
  %5 = load ptr, ptr %op_limit.addr, align 8
  ret ptr %5
}

; Function Attrs: mustprogress nounwind uwtable
define internal void @_ZN6snappy12_GLOBAL__N_115UnalignedCopy64EPKvPv(ptr noundef %src, ptr noundef %dst) #0 {
entry:
  %src.addr = alloca ptr, align 8
  %dst.addr = alloca ptr, align 8
  %tmp = alloca [8 x i8], align 1
  store ptr %src, ptr %src.addr, align 8
  store ptr %dst, ptr %dst.addr, align 8
  %arraydecay = getelementptr inbounds [8 x i8], ptr %tmp, i64 0, i64 0
  %0 = load ptr, ptr %src.addr, align 8
  call void @llvm.memcpy.p0.p0.i64(ptr align 1 %arraydecay, ptr align 1 %0, i64 8, i1 false)
  %1 = load ptr, ptr %dst.addr, align 8
  %arraydecay1 = getelementptr inbounds [8 x i8], ptr %tmp, i64 0, i64 0
  call void @llvm.memcpy.p0.p0.i64(ptr align 1 %1, ptr align 1 %arraydecay1, i64 8, i1 false)
  ret void
}

; Function Attrs: mustprogress nounwind uwtable
define internal noundef ptr @_ZN6snappy12_GLOBAL__N_115IncrementalCopyEPKcPcS3_S3_(ptr noundef %src, ptr noundef %op, ptr noundef %op_limit, ptr noundef %buf_limit) #0 {
entry:
  %retval = alloca ptr, align 8
  %src.addr = alloca ptr, align 8
  %op.addr = alloca ptr, align 8
  %op_limit.addr = alloca ptr, align 8
  %buf_limit.addr = alloca ptr, align 8
  %big_pattern_size_lower_bound = alloca i32, align 4
  %pattern_size = alloca i64, align 8
  %use_16bytes_chunk = alloca i8, align 1
  %op_end = alloca ptr, align 8
  store ptr %src, ptr %src.addr, align 8
  store ptr %op, ptr %op.addr, align 8
  store ptr %op_limit, ptr %op_limit.addr, align 8
  store ptr %buf_limit, ptr %buf_limit.addr, align 8
  store i32 8, ptr %big_pattern_size_lower_bound, align 4
  %0 = load ptr, ptr %op.addr, align 8
  %1 = load ptr, ptr %src.addr, align 8
  %sub.ptr.lhs.cast = ptrtoint ptr %0 to i64
  %sub.ptr.rhs.cast = ptrtoint ptr %1 to i64
  %sub.ptr.sub = sub i64 %sub.ptr.lhs.cast, %sub.ptr.rhs.cast
  store i64 %sub.ptr.sub, ptr %pattern_size, align 8
  %2 = load i64, ptr %pattern_size, align 8
  %cmp = icmp ult i64 %2, 8
  br i1 %cmp, label %if.then, label %if.end11

if.then:                                          ; preds = %entry
  %3 = load ptr, ptr %op.addr, align 8
  %4 = load ptr, ptr %buf_limit.addr, align 8
  %add.ptr = getelementptr inbounds i8, ptr %4, i64 -11
  %cmp1 = icmp ule ptr %3, %add.ptr
  %lnot = xor i1 %cmp1, true
  %lnot2 = xor i1 %lnot, true
  br i1 %lnot2, label %if.then3, label %if.else

if.then3:                                         ; preds = %if.then
  br label %while.cond

while.cond:                                       ; preds = %while.body, %if.then3
  %5 = load i64, ptr %pattern_size, align 8
  %cmp4 = icmp ult i64 %5, 8
  br i1 %cmp4, label %while.body, label %while.end

while.body:                                       ; preds = %while.cond
  %6 = load ptr, ptr %src.addr, align 8
  %7 = load ptr, ptr %op.addr, align 8
  call void @_ZN6snappy12_GLOBAL__N_115UnalignedCopy64EPKvPv(ptr noundef %6, ptr noundef %7)
  %8 = load i64, ptr %pattern_size, align 8
  %9 = load ptr, ptr %op.addr, align 8
  %add.ptr5 = getelementptr inbounds i8, ptr %9, i64 %8
  store ptr %add.ptr5, ptr %op.addr, align 8
  %10 = load i64, ptr %pattern_size, align 8
  %mul = mul i64 %10, 2
  store i64 %mul, ptr %pattern_size, align 8
  br label %while.cond, !llvm.loop !38

while.end:                                        ; preds = %while.cond
  %11 = load ptr, ptr %op.addr, align 8
  %12 = load ptr, ptr %op_limit.addr, align 8
  %cmp6 = icmp uge ptr %11, %12
  %lnot7 = xor i1 %cmp6, true
  %lnot8 = xor i1 %lnot7, true
  br i1 %lnot8, label %if.then9, label %if.end

if.then9:                                         ; preds = %while.end
  %13 = load ptr, ptr %op_limit.addr, align 8
  store ptr %13, ptr %retval, align 8
  br label %return

if.end:                                           ; preds = %while.end
  br label %if.end10

if.else:                                          ; preds = %if.then
  %14 = load ptr, ptr %src.addr, align 8
  %15 = load ptr, ptr %op.addr, align 8
  %16 = load ptr, ptr %op_limit.addr, align 8
  %call = call noundef ptr @_ZN6snappy12_GLOBAL__N_119IncrementalCopySlowEPKcPcS3_(ptr noundef %14, ptr noundef %15, ptr noundef %16)
  store ptr %call, ptr %retval, align 8
  br label %return

if.end10:                                         ; preds = %if.end
  br label %if.end11

if.end11:                                         ; preds = %if.end10, %entry
  store i8 0, ptr %use_16bytes_chunk, align 1
  %17 = load ptr, ptr %op_limit.addr, align 8
  %18 = load ptr, ptr %buf_limit.addr, align 8
  %add.ptr12 = getelementptr inbounds i8, ptr %18, i64 -15
  %cmp13 = icmp ule ptr %17, %add.ptr12
  %lnot14 = xor i1 %cmp13, true
  %lnot15 = xor i1 %lnot14, true
  br i1 %lnot15, label %if.then16, label %if.end35

if.then16:                                        ; preds = %if.end11
  %19 = load ptr, ptr %src.addr, align 8
  %20 = load ptr, ptr %op.addr, align 8
  call void @_ZN6snappy12_GLOBAL__N_127ConditionalUnalignedCopy128ILb0EEEvPKcPc(ptr noundef %19, ptr noundef %20)
  %21 = load ptr, ptr %op.addr, align 8
  %add.ptr17 = getelementptr inbounds i8, ptr %21, i64 16
  %22 = load ptr, ptr %op_limit.addr, align 8
  %cmp18 = icmp ult ptr %add.ptr17, %22
  br i1 %cmp18, label %if.then19, label %if.end22

if.then19:                                        ; preds = %if.then16
  %23 = load ptr, ptr %src.addr, align 8
  %add.ptr20 = getelementptr inbounds i8, ptr %23, i64 16
  %24 = load ptr, ptr %op.addr, align 8
  %add.ptr21 = getelementptr inbounds i8, ptr %24, i64 16
  call void @_ZN6snappy12_GLOBAL__N_127ConditionalUnalignedCopy128ILb0EEEvPKcPc(ptr noundef %add.ptr20, ptr noundef %add.ptr21)
  br label %if.end22

if.end22:                                         ; preds = %if.then19, %if.then16
  %25 = load ptr, ptr %op.addr, align 8
  %add.ptr23 = getelementptr inbounds i8, ptr %25, i64 32
  %26 = load ptr, ptr %op_limit.addr, align 8
  %cmp24 = icmp ult ptr %add.ptr23, %26
  br i1 %cmp24, label %if.then25, label %if.end28

if.then25:                                        ; preds = %if.end22
  %27 = load ptr, ptr %src.addr, align 8
  %add.ptr26 = getelementptr inbounds i8, ptr %27, i64 32
  %28 = load ptr, ptr %op.addr, align 8
  %add.ptr27 = getelementptr inbounds i8, ptr %28, i64 32
  call void @_ZN6snappy12_GLOBAL__N_127ConditionalUnalignedCopy128ILb0EEEvPKcPc(ptr noundef %add.ptr26, ptr noundef %add.ptr27)
  br label %if.end28

if.end28:                                         ; preds = %if.then25, %if.end22
  %29 = load ptr, ptr %op.addr, align 8
  %add.ptr29 = getelementptr inbounds i8, ptr %29, i64 48
  %30 = load ptr, ptr %op_limit.addr, align 8
  %cmp30 = icmp ult ptr %add.ptr29, %30
  br i1 %cmp30, label %if.then31, label %if.end34

if.then31:                                        ; preds = %if.end28
  %31 = load ptr, ptr %src.addr, align 8
  %add.ptr32 = getelementptr inbounds i8, ptr %31, i64 48
  %32 = load ptr, ptr %op.addr, align 8
  %add.ptr33 = getelementptr inbounds i8, ptr %32, i64 48
  call void @_ZN6snappy12_GLOBAL__N_127ConditionalUnalignedCopy128ILb0EEEvPKcPc(ptr noundef %add.ptr32, ptr noundef %add.ptr33)
  br label %if.end34

if.end34:                                         ; preds = %if.then31, %if.end28
  %33 = load ptr, ptr %op_limit.addr, align 8
  store ptr %33, ptr %retval, align 8
  br label %return

if.end35:                                         ; preds = %if.end11
  %34 = load ptr, ptr %buf_limit.addr, align 8
  %add.ptr36 = getelementptr inbounds i8, ptr %34, i64 -16
  store ptr %add.ptr36, ptr %op_end, align 8
  br label %for.cond

for.cond:                                         ; preds = %for.inc, %if.end35
  %35 = load ptr, ptr %op.addr, align 8
  %36 = load ptr, ptr %op_end, align 8
  %cmp37 = icmp ult ptr %35, %36
  br i1 %cmp37, label %for.body, label %for.end

for.body:                                         ; preds = %for.cond
  %37 = load ptr, ptr %src.addr, align 8
  %38 = load ptr, ptr %op.addr, align 8
  call void @_ZN6snappy12_GLOBAL__N_127ConditionalUnalignedCopy128ILb0EEEvPKcPc(ptr noundef %37, ptr noundef %38)
  br label %for.inc

for.inc:                                          ; preds = %for.body
  %39 = load ptr, ptr %op.addr, align 8
  %add.ptr38 = getelementptr inbounds i8, ptr %39, i64 16
  store ptr %add.ptr38, ptr %op.addr, align 8
  %40 = load ptr, ptr %src.addr, align 8
  %add.ptr39 = getelementptr inbounds i8, ptr %40, i64 16
  store ptr %add.ptr39, ptr %src.addr, align 8
  br label %for.cond, !llvm.loop !39

for.end:                                          ; preds = %for.cond
  %41 = load ptr, ptr %op.addr, align 8
  %42 = load ptr, ptr %op_limit.addr, align 8
  %cmp40 = icmp uge ptr %41, %42
  br i1 %cmp40, label %if.then41, label %if.end42

if.then41:                                        ; preds = %for.end
  %43 = load ptr, ptr %op_limit.addr, align 8
  store ptr %43, ptr %retval, align 8
  br label %return

if.end42:                                         ; preds = %for.end
  %44 = load ptr, ptr %op.addr, align 8
  %45 = load ptr, ptr %buf_limit.addr, align 8
  %add.ptr43 = getelementptr inbounds i8, ptr %45, i64 -8
  %cmp44 = icmp ule ptr %44, %add.ptr43
  br i1 %cmp44, label %if.then45, label %if.end48

if.then45:                                        ; preds = %if.end42
  %46 = load ptr, ptr %src.addr, align 8
  %47 = load ptr, ptr %op.addr, align 8
  call void @_ZN6snappy12_GLOBAL__N_115UnalignedCopy64EPKvPv(ptr noundef %46, ptr noundef %47)
  %48 = load ptr, ptr %src.addr, align 8
  %add.ptr46 = getelementptr inbounds i8, ptr %48, i64 8
  store ptr %add.ptr46, ptr %src.addr, align 8
  %49 = load ptr, ptr %op.addr, align 8
  %add.ptr47 = getelementptr inbounds i8, ptr %49, i64 8
  store ptr %add.ptr47, ptr %op.addr, align 8
  br label %if.end48

if.end48:                                         ; preds = %if.then45, %if.end42
  %50 = load ptr, ptr %src.addr, align 8
  %51 = load ptr, ptr %op.addr, align 8
  %52 = load ptr, ptr %op_limit.addr, align 8
  %call49 = call noundef ptr @_ZN6snappy12_GLOBAL__N_119IncrementalCopySlowEPKcPcS3_(ptr noundef %50, ptr noundef %51, ptr noundef %52)
  store ptr %call49, ptr %retval, align 8
  br label %return

return:                                           ; preds = %if.end48, %if.then41, %if.end34, %if.else, %if.then9
  %53 = load ptr, ptr %retval, align 8
  ret ptr %53
}