; Function Attrs: mustprogress nofree norecurse nosync nounwind memory(readwrite, inaccessiblemem: none) uwtable
define internal fastcc noundef ptr @_ZN6snappy12_GLOBAL__N_115IncrementalCopyEPKcPcS3_S3_(ptr noundef %src, ptr noundef %op, ptr noundef readnone returned %op_limit, ptr noundef readnone %buf_limit) unnamed_addr #16 {
entry:
  %sub.ptr.lhs.cast = ptrtoint ptr %op to i64
  %sub.ptr.rhs.cast = ptrtoint ptr %src to i64
  %sub.ptr.sub = sub i64 %sub.ptr.lhs.cast, %sub.ptr.rhs.cast
  %cmp = icmp ult i64 %sub.ptr.sub, 8
  br i1 %cmp, label %if.then, label %if.end11

if.then:                                          ; preds = %entry
  %add.ptr = getelementptr inbounds i8, ptr %buf_limit, i64 -11
  %cmp1.not = icmp ult ptr %add.ptr, %op
  br i1 %cmp1.not, label %if.else, label %while.body

while.body:                                       ; preds = %if.then, %while.body
  %pattern_size.075 = phi i64 [ %mul, %while.body ], [ %sub.ptr.sub, %if.then ]
  %op.addr.074 = phi ptr [ %add.ptr5, %while.body ], [ %op, %if.then ]
  %src.val = load i64, ptr %src, align 1
  store i64 %src.val, ptr %op.addr.074, align 1
  %add.ptr5 = getelementptr inbounds i8, ptr %op.addr.074, i64 %pattern_size.075
  %mul = shl nuw nsw i64 %pattern_size.075, 1
  %cmp4 = icmp ult i64 %pattern_size.075, 4
  br i1 %cmp4, label %while.body, label %while.end, !llvm.loop !40

while.end:                                        ; preds = %while.body
  %cmp6.not = icmp ult ptr %add.ptr5, %op_limit
  br i1 %cmp6.not, label %if.end11, label %return

if.else:                                          ; preds = %if.then
  %cmp3.i = icmp ult ptr %op, %op_limit
  br i1 %cmp3.i, label %while.body.i, label %return

while.body.i:                                     ; preds = %if.else, %while.body.i
  %src.addr.05.i = phi ptr [ %incdec.ptr.i, %while.body.i ], [ %src, %if.else ]
  %op.addr.04.i = phi ptr [ %incdec.ptr1.i, %while.body.i ], [ %op, %if.else ]
  %incdec.ptr.i = getelementptr inbounds i8, ptr %src.addr.05.i, i64 1
  %0 = load i8, ptr %src.addr.05.i, align 1
  %incdec.ptr1.i = getelementptr inbounds i8, ptr %op.addr.04.i, i64 1
  store i8 %0, ptr %op.addr.04.i, align 1
  %exitcond.not.i = icmp eq ptr %incdec.ptr1.i, %op_limit
  br i1 %exitcond.not.i, label %return, label %while.body.i, !llvm.loop !41

if.end11:                                         ; preds = %while.end, %entry
  %op.addr.1 = phi ptr [ %add.ptr5, %while.end ], [ %op, %entry ]
  %add.ptr12 = getelementptr inbounds i8, ptr %buf_limit, i64 -15
  %cmp13.not = icmp ult ptr %add.ptr12, %op_limit
  br i1 %cmp13.not, label %if.end35, label %if.then16

if.then16:                                        ; preds = %if.end11
  %src.val.i = load i64, ptr %src, align 1
  store i64 %src.val.i, ptr %op.addr.1, align 1
  %add.ptr.i = getelementptr inbounds i8, ptr %src, i64 8
  %add.ptr1.i = getelementptr inbounds i8, ptr %op.addr.1, i64 8
  %add.ptr.val.i = load i64, ptr %add.ptr.i, align 1
  store i64 %add.ptr.val.i, ptr %add.ptr1.i, align 1
  %add.ptr17 = getelementptr inbounds i8, ptr %op.addr.1, i64 16
  %cmp18 = icmp ult ptr %add.ptr17, %op_limit
  br i1 %cmp18, label %if.then19, label %if.end22

if.then19:                                        ; preds = %if.then16
  %add.ptr20 = getelementptr inbounds i8, ptr %src, i64 16
  %src.val.i48 = load i64, ptr %add.ptr20, align 1
  store i64 %src.val.i48, ptr %add.ptr17, align 1
  %add.ptr.i49 = getelementptr inbounds i8, ptr %src, i64 24
  %add.ptr1.i50 = getelementptr inbounds i8, ptr %op.addr.1, i64 24
  %add.ptr.val.i51 = load i64, ptr %add.ptr.i49, align 1
  store i64 %add.ptr.val.i51, ptr %add.ptr1.i50, align 1
  br label %if.end22

if.end22:                                         ; preds = %if.then19, %if.then16
  %add.ptr23 = getelementptr inbounds i8, ptr %op.addr.1, i64 32
  %cmp24 = icmp ult ptr %add.ptr23, %op_limit
  br i1 %cmp24, label %if.then25, label %if.end28

if.then25:                                        ; preds = %if.end22
  %add.ptr26 = getelementptr inbounds i8, ptr %src, i64 32
  %src.val.i52 = load i64, ptr %add.ptr26, align 1
  store i64 %src.val.i52, ptr %add.ptr23, align 1
  %add.ptr.i53 = getelementptr inbounds i8, ptr %src, i64 40
  %add.ptr1.i54 = getelementptr inbounds i8, ptr %op.addr.1, i64 40
  %add.ptr.val.i55 = load i64, ptr %add.ptr.i53, align 1
  store i64 %add.ptr.val.i55, ptr %add.ptr1.i54, align 1
  br label %if.end28

if.end28:                                         ; preds = %if.then25, %if.end22
  %add.ptr29 = getelementptr inbounds i8, ptr %op.addr.1, i64 48
  %cmp30 = icmp ult ptr %add.ptr29, %op_limit
  br i1 %cmp30, label %if.then31, label %return

if.then31:                                        ; preds = %if.end28
  %add.ptr32 = getelementptr inbounds i8, ptr %src, i64 48
  %src.val.i56 = load i64, ptr %add.ptr32, align 1
  store i64 %src.val.i56, ptr %add.ptr29, align 1
  %add.ptr.i57 = getelementptr inbounds i8, ptr %src, i64 56
  %add.ptr1.i58 = getelementptr inbounds i8, ptr %op.addr.1, i64 56
  %add.ptr.val.i59 = load i64, ptr %add.ptr.i57, align 1
  store i64 %add.ptr.val.i59, ptr %add.ptr1.i58, align 1
  br label %return

if.end35:                                         ; preds = %if.end11
  %add.ptr36 = getelementptr inbounds i8, ptr %buf_limit, i64 -16
  %cmp3776 = icmp ult ptr %op.addr.1, %add.ptr36
  br i1 %cmp3776, label %for.body, label %for.end

for.body:                                         ; preds = %if.end35, %for.body
  %src.addr.078 = phi ptr [ %add.ptr39, %for.body ], [ %src, %if.end35 ]
  %op.addr.277 = phi ptr [ %add.ptr38, %for.body ], [ %op.addr.1, %if.end35 ]
  %src.val.i60 = load i64, ptr %src.addr.078, align 1
  store i64 %src.val.i60, ptr %op.addr.277, align 1
  %add.ptr.i61 = getelementptr inbounds i8, ptr %src.addr.078, i64 8
  %add.ptr1.i62 = getelementptr inbounds i8, ptr %op.addr.277, i64 8
  %add.ptr.val.i63 = load i64, ptr %add.ptr.i61, align 1
  store i64 %add.ptr.val.i63, ptr %add.ptr1.i62, align 1
  %add.ptr38 = getelementptr inbounds i8, ptr %op.addr.277, i64 16
  %add.ptr39 = getelementptr inbounds i8, ptr %src.addr.078, i64 16
  %cmp37 = icmp ult ptr %add.ptr38, %add.ptr36
  br i1 %cmp37, label %for.body, label %for.end, !llvm.loop !43

for.end:                                          ; preds = %for.body, %if.end35
  %op.addr.2.lcssa = phi ptr [ %op.addr.1, %if.end35 ], [ %add.ptr38, %for.body ]
  %src.addr.0.lcssa = phi ptr [ %src, %if.end35 ], [ %add.ptr39, %for.body ]
  %cmp40.not = icmp ult ptr %op.addr.2.lcssa, %op_limit
  br i1 %cmp40.not, label %if.end42, label %return

if.end42:                                         ; preds = %for.end
  %add.ptr43 = getelementptr inbounds i8, ptr %buf_limit, i64 -8
  %cmp44.not = icmp ugt ptr %op.addr.2.lcssa, %add.ptr43
  br i1 %cmp44.not, label %if.end48, label %if.then45

if.then45:                                        ; preds = %if.end42
  %src.addr.0.val = load i64, ptr %src.addr.0.lcssa, align 1
  store i64 %src.addr.0.val, ptr %op.addr.2.lcssa, align 1
  %add.ptr46 = getelementptr inbounds i8, ptr %src.addr.0.lcssa, i64 8
  %add.ptr47 = getelementptr inbounds i8, ptr %op.addr.2.lcssa, i64 8
  br label %if.end48

if.end48:                                         ; preds = %if.then45, %if.end42
  %op.addr.3 = phi ptr [ %add.ptr47, %if.then45 ], [ %op.addr.2.lcssa, %if.end42 ]
  %src.addr.1 = phi ptr [ %add.ptr46, %if.then45 ], [ %src.addr.0.lcssa, %if.end42 ]
  %cmp3.i64 = icmp ult ptr %op.addr.3, %op_limit
  br i1 %cmp3.i64, label %while.body.i65, label %return

while.body.i65:                                   ; preds = %if.end48, %while.body.i65
  %src.addr.05.i66 = phi ptr [ %incdec.ptr.i68, %while.body.i65 ], [ %src.addr.1, %if.end48 ]
  %op.addr.04.i67 = phi ptr [ %incdec.ptr1.i69, %while.body.i65 ], [ %op.addr.3, %if.end48 ]
  %incdec.ptr.i68 = getelementptr inbounds i8, ptr %src.addr.05.i66, i64 1
  %1 = load i8, ptr %src.addr.05.i66, align 1
  %incdec.ptr1.i69 = getelementptr inbounds i8, ptr %op.addr.04.i67, i64 1
  store i8 %1, ptr %op.addr.04.i67, align 1
  %exitcond.not.i70 = icmp eq ptr %incdec.ptr1.i69, %op_limit
  br i1 %exitcond.not.i70, label %return, label %while.body.i65, !llvm.loop !41

return:                                           ; preds = %while.body.i65, %while.body.i, %if.end48, %if.else, %for.end, %if.end28, %if.then31, %while.end
  ret ptr %op_limit
}